; Function Attrs: nounwind sspstrong uwtable
define internal noundef i64 @cState_as_json_set(i64 noundef %0, i64 noundef %1) #0 {
  %3 = tail call ptr @rb_check_typeddata(i64 noundef %0, ptr noundef nonnull @JSON_Generator_State_type) #22
  %4 = getelementptr inbounds nuw i8, ptr %3, i64 40
  %5 = tail call i64 @rb_convert_type(i64 noundef %1, i32 noundef 12, ptr noundef nonnull @.str.76, ptr noundef nonnull @.str.77) #22
  store i64 %5, ptr %4, align 8, !tbaa !6
  %6 = icmp eq i64 %5, 0
  %7 = and i64 %5, 7
  %8 = icmp ne i64 %7, 0
  %9 = or i1 %6, %8
  br i1 %9, label %rb_obj_write.exit, label %10

10:                                               ; preds = %2
  tail call void @rb_gc_writebarrier(i64 noundef %0, i64 noundef %5) #22
  br label %rb_obj_write.exit

rb_obj_write.exit:                                ; preds = %2, %10
  ret i64 4
}